; Function Attrs: nounwind uwtable
define void @lv_image_cache_resize(i32 noundef %0, i1 noundef zeroext %1) local_unnamed_addr #0 {
  %3 = load ptr, ptr getelementptr inbounds nuw (i8, ptr @lv_global, i64 520), align 8, !tbaa !3
  %4 = zext i32 %0 to i64
  tail call void @lv_cache_set_max_size(ptr noundef %3, i64 noundef %4, ptr noundef null) #4
  br i1 %1, label %5, label %7

5:                                                ; preds = %2
  %6 = load ptr, ptr getelementptr inbounds nuw (i8, ptr @lv_global, i64 520), align 8, !tbaa !3
  tail call void @lv_cache_reserve(ptr noundef %6, i32 noundef %0, ptr noundef null) #4
  br label %7

7:                                                ; preds = %5, %2
  ret void
}